******************************************************************************
                  TI ARM Linker Unix v20.2.0                   
******************************************************************************
>> Linked Tue Jun  2 14:25:16 2020

OUTPUT FILE NAME:   <BP_TMR_sensor_array.out>
ENTRY POINT SYMBOL: "_c_int00_noargs"  address: 00007f25


MEMORY CONFIGURATION

         name            origin    length      used     unused   attr    fill
----------------------  --------  ---------  --------  --------  ----  --------
  FLASH                 00000000   00100000  0000ab5a  000f54a6  R  X
  SRAM                  20000000   00040000  000064c8  00039b38  RW X


SEGMENT ALLOCATION MAP

run origin  load origin   length   init length attrs members
----------  ----------- ---------- ----------- ----- -------
00000000    00000000    0000ab60   0000ab60    r-x
  00000000    00000000    00000208   00000208    r-- .intvecs
  00000208    00000208    0000811e   0000811e    r-x .text
  00008328    00008328    000027f4   000027f4    r-- .const
  0000ab20    0000ab20    00000040   00000040    r-- .cinit
20000000    20000000    000050a3   00000000    rw-
  20000000    20000000    0000026c   00000000    rw- .vtable
  20000270    20000270    00004e20   00000000    rw- .stack
  20005090    20005090    00000013   00000000    rw- .data
20005400    20005400    00001429   00000000    rw-
  20005400    20005400    00001429   00000000    rw- .bss


SECTION ALLOCATION MAP

 output                                  attributes/
section   page    origin      length       input sections
--------  ----  ----------  ----------   ----------------
.intvecs   0    00000000    00000208     
                  00000000    00000208     tm4c1294ncpdt_startup_ccs.obj (.intvecs)

.text      0    00000208    0000811e     
                  00000208    00002b38     lcd_functions.obj (.text)
                  00002d40    00000a4e     rtsv7M4_T_le_v4SPD16_eabi.lib : _printfi.c.obj (.text:__TI_printfi)
                  0000378e    00000002                                   : div0.asm.obj (.text)
                  00003790    000009cc     adc_functions.obj (.text)
                  0000415c    00000738     rtsv7M4_T_le_v4SPD16_eabi.lib : k_rem_pio2.c.obj (.text:__kernel_rem_pio2)
                  00004894    000005dc                                   : s_cos.c.obj (.text:cos)
                  00004e70    000005c4                                   : s_sin.c.obj (.text:sin)
                  00005434    0000034c     uartDMA.obj (.text)
                  00005780    000002ec     rtsv7M4_T_le_v4SPD16_eabi.lib : s_atan.c.obj (.text:atan)
                  00005a6c    00000270                                   : _printfi.c.obj (.text:_pconv_a)
                  00005cdc    00000200     driverlib.lib : sysctl.obj (.text:SysCtlClockFreqSet)
                  00005edc    000001d8     rtsv7M4_T_le_v4SPD16_eabi.lib : e_atan2.c.obj (.text:atan2)
                  000060b4    000001d0                                   : _printfi.c.obj (.text:_pconv_g)
                  00006284    000001b6                                   : fd_add_t2.asm.obj (.text)
                  0000643a    00000002     --HOLE-- [fill = 0]
                  0000643c    00000198     main.obj (.text)
                  000065d4    00000174     rtsv7M4_T_le_v4SPD16_eabi.lib : k_sin.c.obj (.text:__kernel_sin)
                  00006748    0000016c                                   : k_cos.c.obj (.text:__kernel_cos)
                  000068b4    00000158                                   : e_sqrt.c.obj (.text:sqrt)
                  00006a0c    0000013c                                   : _printfi.c.obj (.text:_pconv_e)
                  00006b48    00000136                                   : fd_div_t2.asm.obj (.text)
                  00006c7e    00000132     driverlib.lib : gpio.obj (.text:GPIOPadConfigSet)
                  00006db0    00000124     rtsv7M4_T_le_v4SPD16_eabi.lib : _printfi.c.obj (.text:fcvt)
                  00006ed4    00000110                                   : s_scalbn.c.obj (.text:scalbn)
                  00006fe4    000000fc                                   : fd_mul_t2.asm.obj (.text)
                  000070e0    000000f8                                   : s_floor.c.obj (.text:floor)
                  000071d8    000000c0     debug_functions.obj (.text)
                  00007298    000000b1     rtsv7M4_T_le_v4SPD16_eabi.lib : _printfi.c.obj (.text:_ltostr)
                  00007349    00000001     --HOLE-- [fill = 0]
                  0000734a    0000009c                                   : memcpy_t2.asm.obj (.text)
                  000073e6    00000096                                   : ull_div_t2.asm.obj (.text)
                  0000747c    00000086                                   : fd_cmp_t2.asm.obj (.text:__aeabi_cdcmple)
                  00007502    00000086                                   : fd_cmp_t2.asm.obj (.text:__aeabi_cdrcmple)
                  00007588    0000007c     driverlib.lib : udma.obj (.text:uDMAChannelTransferSet)
                  00007604    0000007a                   : adc.obj (.text:ADCSequenceStepConfigure)
                  0000767e    0000007a     rtsv7M4_T_le_v4SPD16_eabi.lib : memset_t2.asm.obj (.text)
                  000076f8    0000006e                                   : _printfi.c.obj (.text:_mcpy)
                  00007766    00000002     --HOLE-- [fill = 0]
                  00007768    00000068     driverlib.lib : interrupt.obj (.text:IntEnable)
                  000077d0    00000068     rtsv7M4_T_le_v4SPD16_eabi.lib : copy_decompress_lzss.c.obj (.text:decompress:lzss:__TI_decompress_lzss)
                  00007838    00000064                                   : s_frexp.c.obj (.text:frexp)
                  0000789c    00000064     timer_functions.obj (.text)
                  00007900    00000060     driverlib.lib : timer.obj (.text:TimerConfigure)
                  00007960    00000056     rtsv7M4_T_le_v4SPD16_eabi.lib : _printfi.c.obj (.text:_pconv_f)
                  000079b6    00000054                                   : _ltoa.c.obj (.text:__TI_ltoa)
                  00007a0a    00000052                                   : _printfi.c.obj (.text:_ecpy)
                  00007a5c    00000050     driverlib.lib : adc.obj (.text:_ADCIntNumberGet)
                  00007aac    0000004e                   : adc.obj (.text:ADCSequenceConfigure)
                  00007afa    00000002     --HOLE-- [fill = 0]
                  00007afc    0000004c                   : gpio.obj (.text:GPIOPinConfigure)
                  00007b48    0000004c                   : timer.obj (.text:_TimerIntNumberGet)
                  00007b94    0000004c     rtsv7M4_T_le_v4SPD16_eabi.lib : atoi.c.obj (.text:atoi)
                  00007be0    00000048     driverlib.lib : sysctl.obj (.text:_SysCtlFrequencyGet)
                  00007c28    00000048     rtsv7M4_T_le_v4SPD16_eabi.lib : fd_toi_t2.asm.obj (.text)
                  00007c70    00000048     driverlib.lib : udma.obj (.text:uDMAChannelAttributeDisable)
                  00007cb8    00000046                   : uart.obj (.text:UARTConfigSetExpClk)
                  00007cfe    00000002     --HOLE-- [fill = 0]
                  00007d00    00000044     rtsv7M4_T_le_v4SPD16_eabi.lib : autoinit.c.obj (.text:__TI_auto_init_nobinit_nopinit:__TI_auto_init_nobinit_nopinit)
                  00007d44    00000044     driverlib.lib : udma.obj (.text:uDMAChannelAttributeEnable)
                  00007d88    00000040                   : uart.obj (.text:_UARTIntNumberGet)
                  00007dc8    00000040     rtsv7M4_T_le_v4SPD16_eabi.lib : sprintf.c.obj (.text:sprintf)
                  00007e08    0000003e                                   : _printfi.c.obj (.text:_fcpy)
                  00007e46    00000002     --HOLE-- [fill = 0]
                  00007e48    0000003c     EEPROM_functions.obj (.text)
                  00007e84    00000038     driverlib.lib : sysctl.obj (.text:SysCtlPeripheralReady)
                  00007ebc    00000034                   : interrupt.obj (.text:IntRegister)
                  00007ef0    00000034                   : sysctl.obj (.text:SysCtlPeripheralEnable)
                  00007f24    00000034     rtsv7M4_T_le_v4SPD16_eabi.lib : boot_cortex_m.c.obj (.text:_c_int00_noargs:_c_int00_noargs)
                  00007f58    0000002e                                   : i_tofd_t2.asm.obj (.text)
                  00007f86    0000002c     driverlib.lib : gpio.obj (.text:GPIODirModeSet)
                  00007fb2    00000002     --HOLE-- [fill = 0]
                  00007fb4    0000002c                   : udma.obj (.text:uDMAChannelAssign)
                  00007fe0    00000024                   : interrupt.obj (.text:IntPrioritySet)
                  00008004    00000024                   : udma.obj (.text:uDMAChannelControlSet)
                  00008028    00000020                   : uart.obj (.text:UARTDisable)
                  00008048    00000020                   : sysctl.obj (.text:_SysCtlMemTimingGet)
                  00008068    0000001e                   : adc.obj (.text:ADCSequenceDataGet)
                  00008086    0000001c     rtsv7M4_T_le_v4SPD16_eabi.lib : memccpy.c.obj (.text:memccpy)
                  000080a2    0000001a                                   : s_copysign.c.obj (.text:copysign)
                  000080bc    00000018     driverlib.lib : adc.obj (.text:ADCIntRegister)
                  000080d4    00000018                   : adc.obj (.text:ADCProcessorTrigger)
                  000080ec    00000018                   : gpio.obj (.text:GPIOPinTypeGPIOOutput)
                  00008104    00000018                   : timer.obj (.text:TimerIntRegister)
                  0000811c    00000018                   : uart.obj (.text:UARTIntRegister)
                  00008134    00000018     rtsv7M4_T_le_v4SPD16_eabi.lib : sprintf.c.obj (.text:_outs)
                  0000814c    00000018     driverlib.lib : udma.obj (.text:uDMAChannelEnable)
                  00008164    00000016                   : gpio.obj (.text:GPIOPinTypeUART)
                  0000817a    00000016     rtsv7M4_T_le_v4SPD16_eabi.lib : strchr.c.obj (.text:strchr)
                  00008190    00000014     driverlib.lib : uart.obj (.text:UARTEnable)
                  000081a4    00000014     rtsv7M4_T_le_v4SPD16_eabi.lib : strlen.c.obj (.text:strlen)
                  000081b8    00000012     driverlib.lib : timer.obj (.text:TimerLoadSet)
                  000081ca    00000012     rtsv7M4_T_le_v4SPD16_eabi.lib : wcslen.c.obj (.text:wcslen)
                  000081dc    00000010     driverlib.lib : adc.obj (.text:ADCIntEnable)
                  000081ec    00000010                   : interrupt.obj (.text:IntMasterDisable)
                  000081fc    00000010                   : interrupt.obj (.text:IntMasterEnable)
                  0000820c    00000010                   : udma.obj (.text:uDMAEnable)
                  0000821c    0000000e                   : adc.obj (.text:ADCHardwareOversampleConfigure)
                  0000822a    0000000e                   : adc.obj (.text:ADCSequenceEnable)
                  00008238    0000000e                   : timer.obj (.text:TimerEnable)
                  00008246    0000000e                   : uart.obj (.text:UARTCharGetNonBlocking)
                  00008254    0000000e                   : uart.obj (.text:UARTCharPutNonBlocking)
                  00008262    0000000e                   : uart.obj (.text:UARTCharsAvail)
                  00008270    0000000e     rtsv7M4_T_le_v4SPD16_eabi.lib : copy_decompress_none.c.obj (.text:decompress:none:__TI_decompress_none)
                  0000827e    0000000c     driverlib.lib : cpu.obj (.text:CPUcpsid)
                  0000828a    0000000c                   : cpu.obj (.text:CPUcpsie)
                  00008296    0000000c     rtsv7M4_T_le_v4SPD16_eabi.lib : copy_zero_init.c.obj (.text:decompress:ZI:__TI_zero_init)
                  000082a2    0000000c     tm4c1294ncpdt_startup_ccs.obj (.text)
                  000082ae    00000002     --HOLE-- [fill = 0]
                  000082b0    0000000c     driverlib.lib : udma.obj (.text:uDMAControlBaseSet)
                  000082bc    0000000a                   : adc.obj (.text:ADCIntClear)
                  000082c6    0000000a                   : uart.obj (.text:UARTFIFOEnable)
                  000082d0    0000000a                   : uart.obj (.text:UARTIntStatus)
                  000082da    0000000a     rtsv7M4_T_le_v4SPD16_eabi.lib : sprintf.c.obj (.text:_outc)
                  000082e4    00000008     driverlib.lib : timer.obj (.text:TimerIntEnable)
                  000082ec    00000008                   : uart.obj (.text:UARTDMAEnable)
                  000082f4    00000008                   : uart.obj (.text:UARTIntEnable)
                  000082fc    00000008     rtsv7M4_T_le_v4SPD16_eabi.lib : errno.c.obj (.text:__aeabi_errno_addr)
                  00008304    00000006     driverlib.lib : gpio.obj (.text:GPIOPinWrite)
                  0000830a    00000006                   : sysctl.obj (.text:SysCtlDelay)
                  00008310    00000006                   : uart.obj (.text:UARTFIFOLevelSet)
                  00008316    00000004                   : timer.obj (.text:TimerIntClear)
                  0000831a    00000004                   : uart.obj (.text:UARTIntClear)
                  0000831e    00000004     rtsv7M4_T_le_v4SPD16_eabi.lib : pre_init.c.obj (.text:_system_pre_init)
                  00008322    00000004                                   : exit.c.obj (.text:abort:abort)

.const     0    00008328    000027f4     
                  00008328    00002000     lcd_functions.obj (.const:font_12_16)
                  0000a328    000001b0     driverlib.lib : sysctl.obj (.const:g_pppui32XTALtoVCO)
                  0000a4d8    00000158     rtsv7M4_T_le_v4SPD16_eabi.lib : k_rem_pio2.c.obj (.const:$O1$$)
                  0000a630    00000101                                   : ctype.c.obj (.const:.string:_ctypes_)
                  0000a731    00000003     --HOLE-- [fill = 0]
                  0000a734    0000009c     driverlib.lib : interrupt.obj (.const:g_pui32Regs)
                  0000a7d0    00000098     rtsv7M4_T_le_v4SPD16_eabi.lib : s_atan.c.obj (.const:$O1$$)
                  0000a868    00000090     driverlib.lib : gpio.obj (.const:g_pui32GPIOBaseAddrs)
                  0000a8f8    0000006c                   : sysctl.obj (.const:g_pui32Xtals)
                  0000a964    00000060                   : timer.obj (.const:g_ppui32TimerIntMap)
                  0000a9c4    00000040                   : timer.obj (.const:g_ppui32TimerIntMapSnowflake)
                  0000aa04    00000040                   : uart.obj (.const:g_ppui32UARTIntMap)
                  0000aa44    00000040                   : uart.obj (.const:g_ppui32UARTIntMapSnowflake)
                  0000aa84    00000030                   : sysctl.obj (.const:g_sXTALtoMEMTIM)
                  0000aab4    00000014                   : interrupt.obj (.const:g_pui32EnRegs)
                  0000aac8    00000008                   : sysctl.obj (.const:g_pui32VCOFrequencies)
                  0000aad0    00000004     lcd_functions.obj (.const:$P$T10$5)
                  0000aad4    00000004     lcd_functions.obj (.const:$P$T11$6)
                  0000aad8    00000004     lcd_functions.obj (.const:$P$T12$7)
                  0000aadc    00000004     lcd_functions.obj (.const:$P$T14$8)
                  0000aae0    00000004     lcd_functions.obj (.const:$P$T16$9)
                  0000aae4    00000004     lcd_functions.obj (.const:$P$T18$10)
                  0000aae8    00000004     lcd_functions.obj (.const:$P$T23$11)
                  0000aaec    00000004     lcd_functions.obj (.const:$P$T24$12)
                  0000aaf0    00000004     lcd_functions.obj (.const:$P$T25$13)
                  0000aaf4    00000004     lcd_functions.obj (.const:$P$T26$14)
                  0000aaf8    00000004     lcd_functions.obj (.const:$P$T29$15)
                  0000aafc    00000004     lcd_functions.obj (.const:$P$T30$16)
                  0000ab00    00000004     lcd_functions.obj (.const:$P$T32$17)
                  0000ab04    00000004     lcd_functions.obj (.const:$P$T36$18)
                  0000ab08    00000004     lcd_functions.obj (.const:$P$T37$19)
                  0000ab0c    00000004     lcd_functions.obj (.const:$P$T38$20)
                  0000ab10    00000004     lcd_functions.obj (.const:$P$T4$2)
                  0000ab14    00000004     lcd_functions.obj (.const:$P$T5$3)
                  0000ab18    00000004     lcd_functions.obj (.const:$P$T6$4)

.cinit     0    0000ab20    00000040     
                  0000ab20    0000000c     (__TI_handler_table)
                  0000ab2c    00000009     (.cinit..data.load) [load image, compression = lzss]
                  0000ab35    00000003     --HOLE-- [fill = 0]
                  0000ab38    00000008     (.cinit..bss.load) [load image, compression = zero_init]
                  0000ab40    00000008     (.cinit..vtable.load) [load image, compression = zero_init]
                  0000ab48    00000018     (__TI_cinit_table)

.init_array 
*          0    00000000    00000000     UNINITIALIZED

.vtable    0    20000000    0000026c     UNINITIALIZED
                  20000000    0000026c     driverlib.lib : interrupt.obj (.vtable)

.data      0    20005090    00000013     UNINITIALIZED
                  20005090    00000009     uartDMA.obj (.data:stepperMotorCommand$1)
                  20005099    00000001     --HOLE--
                  2000509a    00000002     main.obj (.data)
                  2000509c    00000004     rtsv7M4_T_le_v4SPD16_eabi.lib : errno.c.obj (.data)
                  200050a0    00000003     lcd_functions.obj (.data)

.bss       0    20005400    00001429     UNINITIALIZED
                  20005400    00000c00     (.common:color)
                  20006000    00000400     (.common:pui8ControlTable)
                  20006400    00000100     adc_functions.obj (.bss:CosResults)
                  20006500    00000100     adc_functions.obj (.bss:SinResults)
                  20006600    00000080     (.common:CosOffset)
                  20006680    00000080     (.common:SinOffset)
                  20006700    00000080     (.common:oldDiffCosResults)
                  20006780    00000080     (.common:oldDiffSinResults)
                  20006800    0000000c     (.common:setting)
                  2000680c    00000008     uartDMA.obj (.bss:UART0receive)
                  20006814    00000004     main.obj (.bss)
                  20006818    00000004     (.common:SensorData)
                  2000681c    00000004     (.common:backColor)
                  20006820    00000004     (.common:sensorData)
                  20006824    00000004     (.common:settings)
                  20006828    00000001     (.common:commandFromTouch)

.stack     0    20000270    00004e20     UNINITIALIZED
                  20000270    00000004     rtsv7M4_T_le_v4SPD16_eabi.lib : boot_cortex_m.c.obj (.stack)
                  20000274    00004e1c     --HOLE--

__llvm_prf_cnts 
*          0    20000000    00000000     UNINITIALIZED

MODULE SUMMARY

       Module                          code    ro data   rw data
       ------                          ----    -------   -------
    ./
       lcd_functions.obj               11064   8268      3335   
       adc_functions.obj               2508    0         772    
       uartDMA.obj                     844     0         1041   
       tm4c1294ncpdt_startup_ccs.obj   12      520       0      
       main.obj                        408     0         15     
       debug_functions.obj             192     0         0      
       timer_functions.obj             100     0         0      
       EEPROM_functions.obj            60      0         12     
    +--+-------------------------------+-------+---------+---------+
       Total:                          15188   8788      5175   
                                                                
    /home/ole/CodeComposerStudio10/TivaWare_C_Series-2.1.4.178/driverlib/ccs/Debug/driverlib.lib
       sysctl.obj                      730     596       0      
       interrupt.obj                   224     176       620    
       gpio.obj                        478     144       0      
       uart.obj                        298     128       0      
       adc.obj                         412     0         0      
       timer.obj                       240     160       0      
       udma.obj                        396     0         0      
       cpu.obj                         24      0         0      
    +--+-------------------------------+-------+---------+---------+
       Total:                          2802    1204      620    
                                                                
    /home/ole/CodeComposerStudio10/ccs/tools/compiler/ti-cgt-arm_20.2.0.LTS/lib/rtsv7M4_T_le_v4SPD16_eabi.lib
       _printfi.c.obj                  4851    0         0      
       k_rem_pio2.c.obj                1848    344       0      
       s_cos.c.obj                     1500    0         0      
       s_sin.c.obj                     1476    0         0      
       s_atan.c.obj                    748     152       0      
       e_atan2.c.obj                   472     0         0      
       fd_add_t2.asm.obj               438     0         0      
       k_sin.c.obj                     372     0         0      
       k_cos.c.obj                     364     0         0      
       e_sqrt.c.obj                    344     0         0      
       fd_div_t2.asm.obj               310     0         0      
       s_scalbn.c.obj                  272     0         0      
       fd_cmp_t2.asm.obj               268     0         0      
       ctype.c.obj                     0       257       0      
       fd_mul_t2.asm.obj               252     0         0      
       s_floor.c.obj                   248     0         0      
       memcpy_t2.asm.obj               156     0         0      
       ull_div_t2.asm.obj              150     0         0      
       memset_t2.asm.obj               122     0         0      
       copy_decompress_lzss.c.obj      104     0         0      
       s_frexp.c.obj                   100     0         0      
       sprintf.c.obj                   98      0         0      
       _ltoa.c.obj                     84      0         0      
       atoi.c.obj                      76      0         0      
       fd_toi_t2.asm.obj               72      0         0      
       autoinit.c.obj                  68      0         0      
       boot_cortex_m.c.obj             52      0         0      
       i_tofd_t2.asm.obj               46      0         0      
       memccpy.c.obj                   28      0         0      
       s_copysign.c.obj                26      0         0      
       strchr.c.obj                    22      0         0      
       strlen.c.obj                    20      0         0      
       wcslen.c.obj                    18      0         0      
       copy_decompress_none.c.obj      14      0         0      
       copy_zero_init.c.obj            12      0         0      
       errno.c.obj                     8       0         4      
       exit.c.obj                      4       0         0      
       pre_init.c.obj                  4       0         0      
       div0.asm.obj                    2       0         0      
    +--+-------------------------------+-------+---------+---------+
       Total:                          15049   753       4      
                                                                
       Stack:                          0       0         20000  
       Linker Generated:               0       61        0      
    +--+-------------------------------+-------+---------+---------+
       Grand Total:                    33039   10806     25799  


LINKER GENERATED COPY TABLES

__TI_cinit_table @ 0000ab48 records: 3, size/record: 8, table size: 24
	.data: load addr=0000ab2c, load size=00000009 bytes, run addr=20005090, run size=00000013 bytes, compression=lzss
	.bss: load addr=0000ab38, load size=00000008 bytes, run addr=20005400, run size=00001429 bytes, compression=zero_init
	.vtable: load addr=0000ab40, load size=00000008 bytes, run addr=20000000, run size=0000026c bytes, compression=zero_init


LINKER GENERATED HANDLER TABLE

__TI_handler_table @ 0000ab20 records: 3, size/record: 4, table size: 12
	index: 0, handler: __TI_zero_init
	index: 1, handler: __TI_decompress_lzss
	index: 2, handler: __TI_decompress_none


GLOBAL SYMBOLS: SORTED ALPHABETICALLY BY Name 

address   name                          
-------   ----                          
000064df  ADC1IntHandler                
0000821d  ADCHardwareOversampleConfigure
000082bd  ADCIntClear                   
000081dd  ADCIntEnable                  
000080bd  ADCIntRegister                
000080d5  ADCProcessorTrigger           
00007aad  ADCSequenceConfigure          
00008069  ADCSequenceDataGet            
0000822b  ADCSequenceEnable             
00007605  ADCSequenceStepConfigure      
00008323  C$$EXIT                       
0000827f  CPUcpsid                      
0000828b  CPUcpsie                      
00003fe9  ConfigureADC                  
0000726f  ConfigureDebugGPIO            
000028c9  ConfigureLCD5Inch             
00002ab7  ConfigureLCD7Inch             
000078a9  ConfigureTimer0               
0000565d  ConfigureUART0                
000056d9  ConfigureUART2                
20006600  CosOffset                     
00007f87  GPIODirModeSet                
00006c7f  GPIOPadConfigSet              
00007afd  GPIOPinConfigure              
000080ed  GPIOPinTypeGPIOOutput         
00008165  GPIOPinTypeUART               
00008305  GPIOPinWrite                  
00007769  IntEnable                     
000081ed  IntMasterDisable              
000081fd  IntMasterEnable               
00007fe1  IntPrioritySet                
00007ebd  IntRegister                   
000082a3  ResetISR                      
20006818  SensorData                    
20006680  SinOffset                     
00005cdd  SysCtlClockFreqSet            
0000830b  SysCtlDelay                   
00007ef1  SysCtlPeripheralEnable        
00007e85  SysCtlPeripheralReady         
00006491  Timer0IntHandler              
00007901  TimerConfigure                
00008239  TimerEnable                   
00008317  TimerIntClear                 
000082e5  TimerIntEnable                
00008105  TimerIntRegister              
000081b9  TimerLoadSet                  
00005435  UART0ClearInterrupt           
00006533  UART0IntHandler               
00005555  UART2IntHandler               
00008247  UARTCharGetNonBlocking        
00008255  UARTCharPutNonBlocking        
00008263  UARTCharsAvail                
00007cb9  UARTConfigSetExpClk           
000082ed  UARTDMAEnable                 
00008029  UARTDisable                   
00008191  UARTEnable                    
000082c7  UARTFIFOEnable                
00008311  UARTFIFOLevelSet              
00005443  UARTGetIntStatus              
0000831b  UARTIntClear                  
000082f5  UARTIntEnable                 
0000811d  UARTIntRegister               
000082d1  UARTIntStatus                 
20005090  __STACK_END                   
00004e20  __STACK_SIZE                  
20000470  __STACK_TOP                   
0000ab48  __TI_CINIT_Base               
0000ab60  __TI_CINIT_Limit              
0000ab20  __TI_Handler_Table_Base       
0000ab2c  __TI_Handler_Table_Limit      
00007d01  __TI_auto_init_nobinit_nopinit
000077d1  __TI_decompress_lzss          
00008271  __TI_decompress_none          
000079b7  __TI_ltoa                     
ffffffff  __TI_pprof_out_hndl           
00002d41  __TI_printfi                  
ffffffff  __TI_prof_data_size           
ffffffff  __TI_prof_data_start          
00000000  __TI_static_base__            
00008297  __TI_zero_init                
0000747d  __aeabi_cdcmpeq               
0000747d  __aeabi_cdcmple               
00007503  __aeabi_cdrcmple              
00007c29  __aeabi_d2iz                  
0000628f  __aeabi_dadd                  
00006b49  __aeabi_ddiv                  
00006fe5  __aeabi_dmul                  
00006285  __aeabi_dsub                  
000082fd  __aeabi_errno_addr            
00007f59  __aeabi_i2d                   
0000378f  __aeabi_idiv0                 
0000378f  __aeabi_ldiv0                 
0000767f  __aeabi_memclr                
0000767f  __aeabi_memclr4               
0000767f  __aeabi_memclr8               
0000734b  __aeabi_memcpy                
0000734b  __aeabi_memcpy4               
0000734b  __aeabi_memcpy8               
00007681  __aeabi_memset                
00007681  __aeabi_memset4               
00007681  __aeabi_memset8               
000073e7  __aeabi_uldivmod              
ffffffff  __binit__                     
ffffffff  __c_args__                    
00006749  __kernel_cos                  
0000415d  __kernel_rem_pio2             
000065d5  __kernel_sin                  
UNDEFED   __mpu_init                    
20000270  __stack                       
20000000  __start___llvm_prf_cnts       
20000000  __stop___llvm_prf_cnts        
00007f25  _c_int00_noargs               
0000a630  _ctypes_                      
UNDEFED   _system_post_cinit            
0000831f  _system_pre_init              
00008323  abort                         
000037ad  adcIntClear                   
00005781  atan                          
00005edd  atan2                         
00005edd  atan2l                        
00005781  atanl                         
00007b95  atoi                          
2000681c  backColor                     
ffffffff  binit                         
20005400  color                         
20006828  commandFromTouch              
00003aad  computeArrows                 
000055f3  configureUartUDMA             
000080a3  copysign                      
000080a3  copysignl                     
00004895  cos                           
00004895  cosl                          
00000839  drawDisplay5Inch              
00000a55  drawDisplay7Inch              
2000509c  errno                         
000070e1  floor                         
000070e1  floorl                        
00007839  frexp                         
00007839  frexpl                        
20000000  g_pfnRAMVectors               
00000000  g_pfnVectors                  
00000377  generateColors                
000037ef  getADCHardwareAveraging       
00005473  getMaxArrowLength             
00005453  getRelativeAbsoluteSetting    
0000544f  getUART0RxData                
00006ed5  ldexp                         
00006ed5  ldexpl                        
00007e49  loadSettings                  
0000643d  main                          
00008087  memccpy                       
0000734b  memcpy                        
00007687  memset                        
00007223  offLED                        
00007255  offOszi                       
200050a0  offset                        
20006700  oldDiffCosResults             
20006780  oldDiffSinResults             
0000720b  onLED                         
0000723b  onOszi                        
00005493  prepareNextReceiveDMA         
0000048d  printString                   
20006000  pui8ControlTable              
00000367  readTouchscreen               
00005577  receiveDataFromMotor          
00007e77  saveSettings                  
00006ed5  scalbn                        
00006ed5  scalbnl                       
000054cf  sendCommandToMotor            
000054ad  sendUARTDMA                   
20006820  sensorData                    
000006a3  setLCDBackgroundColor         
000037b9  setMultiplexer                
20006800  setting                       
20006824  settings                      
00004e71  sin                           
00004e71  sinl                          
00007dc9  sprintf                       
000068b5  sqrt                          
000068b5  sqrtl                         
00003791  startADConversion             
0000381f  storeArraySensorData          
0000817b  strchr                        
000081a5  strlen                        
0000789d  timer0IntClear                
000071d9  toggleLED                     
000071f1  toggleOszi                    
00007fb5  uDMAChannelAssign             
00007c71  uDMAChannelAttributeDisable   
00007d45  uDMAChannelAttributeEnable    
00008005  uDMAChannelControlSet         
0000814d  uDMAChannelEnable             
00007589  uDMAChannelTransferSet        
000082b1  uDMAControlBaseSet            
0000820d  uDMAEnable                    
000081cb  wcslen                        
000005c1  writeChar                     
00000ca9  writeCmdData                  
00000c89  writeCommand                  
00000cc9  writeData                     
00000209  writeInfos                    
00000dc5  writeLine                     
0000210d  writeLine0Degree              
000021b5  writeLine180Degree            
00002209  writeLine270Degree            
00002161  writeLine90Degree             
00002265  writeLineQuadrant1_I          
0000233d  writeLineQuadrant1_II         
00002403  writeLineQuadrant2_I          
000024c9  writeLineQuadrant2_II         
000025a1  writeLineQuadrant3_I          
00002667  writeLineQuadrant3_II         
0000272d  writeLineQuadrant4_I          
000027f3  writeLineQuadrant4_II         
00000d15  writePosition                 
0000072d  writeRecangle                 
000007af  writeScreenColor7INCH         


GLOBAL SYMBOLS: SORTED BY Symbol Address 

address   name                          
-------   ----                          
00000000  __TI_static_base__            
00000000  g_pfnVectors                  
00000209  writeInfos                    
00000367  readTouchscreen               
00000377  generateColors                
0000048d  printString                   
000005c1  writeChar                     
000006a3  setLCDBackgroundColor         
0000072d  writeRecangle                 
000007af  writeScreenColor7INCH         
00000839  drawDisplay5Inch              
00000a55  drawDisplay7Inch              
00000c89  writeCommand                  
00000ca9  writeCmdData                  
00000cc9  writeData                     
00000d15  writePosition                 
00000dc5  writeLine                     
0000210d  writeLine0Degree              
00002161  writeLine90Degree             
000021b5  writeLine180Degree            
00002209  writeLine270Degree            
00002265  writeLineQuadrant1_I          
0000233d  writeLineQuadrant1_II         
00002403  writeLineQuadrant2_I          
000024c9  writeLineQuadrant2_II         
000025a1  writeLineQuadrant3_I          
00002667  writeLineQuadrant3_II         
0000272d  writeLineQuadrant4_I          
000027f3  writeLineQuadrant4_II         
000028c9  ConfigureLCD5Inch             
00002ab7  ConfigureLCD7Inch             
00002d41  __TI_printfi                  
0000378f  __aeabi_idiv0                 
0000378f  __aeabi_ldiv0                 
00003791  startADConversion             
000037ad  adcIntClear                   
000037b9  setMultiplexer                
000037ef  getADCHardwareAveraging       
0000381f  storeArraySensorData          
00003aad  computeArrows                 
00003fe9  ConfigureADC                  
0000415d  __kernel_rem_pio2             
00004895  cos                           
00004895  cosl                          
00004e20  __STACK_SIZE                  
00004e71  sin                           
00004e71  sinl                          
00005435  UART0ClearInterrupt           
00005443  UARTGetIntStatus              
0000544f  getUART0RxData                
00005453  getRelativeAbsoluteSetting    
00005473  getMaxArrowLength             
00005493  prepareNextReceiveDMA         
000054ad  sendUARTDMA                   
000054cf  sendCommandToMotor            
00005555  UART2IntHandler               
00005577  receiveDataFromMotor          
000055f3  configureUartUDMA             
0000565d  ConfigureUART0                
000056d9  ConfigureUART2                
00005781  atan                          
00005781  atanl                         
00005cdd  SysCtlClockFreqSet            
00005edd  atan2                         
00005edd  atan2l                        
00006285  __aeabi_dsub                  
0000628f  __aeabi_dadd                  
0000643d  main                          
00006491  Timer0IntHandler              
000064df  ADC1IntHandler                
00006533  UART0IntHandler               
000065d5  __kernel_sin                  
00006749  __kernel_cos                  
000068b5  sqrt                          
000068b5  sqrtl                         
00006b49  __aeabi_ddiv                  
00006c7f  GPIOPadConfigSet              
00006ed5  ldexp                         
00006ed5  ldexpl                        
00006ed5  scalbn                        
00006ed5  scalbnl                       
00006fe5  __aeabi_dmul                  
000070e1  floor                         
000070e1  floorl                        
000071d9  toggleLED                     
000071f1  toggleOszi                    
0000720b  onLED                         
00007223  offLED                        
0000723b  onOszi                        
00007255  offOszi                       
0000726f  ConfigureDebugGPIO            
0000734b  __aeabi_memcpy                
0000734b  __aeabi_memcpy4               
0000734b  __aeabi_memcpy8               
0000734b  memcpy                        
000073e7  __aeabi_uldivmod              
0000747d  __aeabi_cdcmpeq               
0000747d  __aeabi_cdcmple               
00007503  __aeabi_cdrcmple              
00007589  uDMAChannelTransferSet        
00007605  ADCSequenceStepConfigure      
0000767f  __aeabi_memclr                
0000767f  __aeabi_memclr4               
0000767f  __aeabi_memclr8               
00007681  __aeabi_memset                
00007681  __aeabi_memset4               
00007681  __aeabi_memset8               
00007687  memset                        
00007769  IntEnable                     
000077d1  __TI_decompress_lzss          
00007839  frexp                         
00007839  frexpl                        
0000789d  timer0IntClear                
000078a9  ConfigureTimer0               
00007901  TimerConfigure                
000079b7  __TI_ltoa                     
00007aad  ADCSequenceConfigure          
00007afd  GPIOPinConfigure              
00007b95  atoi                          
00007c29  __aeabi_d2iz                  
00007c71  uDMAChannelAttributeDisable   
00007cb9  UARTConfigSetExpClk           
00007d01  __TI_auto_init_nobinit_nopinit
00007d45  uDMAChannelAttributeEnable    
00007dc9  sprintf                       
00007e49  loadSettings                  
00007e77  saveSettings                  
00007e85  SysCtlPeripheralReady         
00007ebd  IntRegister                   
00007ef1  SysCtlPeripheralEnable        
00007f25  _c_int00_noargs               
00007f59  __aeabi_i2d                   
00007f87  GPIODirModeSet                
00007fb5  uDMAChannelAssign             
00007fe1  IntPrioritySet                
00008005  uDMAChannelControlSet         
00008029  UARTDisable                   
00008069  ADCSequenceDataGet            
00008087  memccpy                       
000080a3  copysign                      
000080a3  copysignl                     
000080bd  ADCIntRegister                
000080d5  ADCProcessorTrigger           
000080ed  GPIOPinTypeGPIOOutput         
00008105  TimerIntRegister              
0000811d  UARTIntRegister               
0000814d  uDMAChannelEnable             
00008165  GPIOPinTypeUART               
0000817b  strchr                        
00008191  UARTEnable                    
000081a5  strlen                        
000081b9  TimerLoadSet                  
000081cb  wcslen                        
000081dd  ADCIntEnable                  
000081ed  IntMasterDisable              
000081fd  IntMasterEnable               
0000820d  uDMAEnable                    
0000821d  ADCHardwareOversampleConfigure
0000822b  ADCSequenceEnable             
00008239  TimerEnable                   
00008247  UARTCharGetNonBlocking        
00008255  UARTCharPutNonBlocking        
00008263  UARTCharsAvail                
00008271  __TI_decompress_none          
0000827f  CPUcpsid                      
0000828b  CPUcpsie                      
00008297  __TI_zero_init                
000082a3  ResetISR                      
000082b1  uDMAControlBaseSet            
000082bd  ADCIntClear                   
000082c7  UARTFIFOEnable                
000082d1  UARTIntStatus                 
000082e5  TimerIntEnable                
000082ed  UARTDMAEnable                 
000082f5  UARTIntEnable                 
000082fd  __aeabi_errno_addr            
00008305  GPIOPinWrite                  
0000830b  SysCtlDelay                   
00008311  UARTFIFOLevelSet              
00008317  TimerIntClear                 
0000831b  UARTIntClear                  
0000831f  _system_pre_init              
00008323  C$$EXIT                       
00008323  abort                         
0000a630  _ctypes_                      
0000ab20  __TI_Handler_Table_Base       
0000ab2c  __TI_Handler_Table_Limit      
0000ab48  __TI_CINIT_Base               
0000ab60  __TI_CINIT_Limit              
20000000  __start___llvm_prf_cnts       
20000000  __stop___llvm_prf_cnts        
20000000  g_pfnRAMVectors               
20000270  __stack                       
20000470  __STACK_TOP                   
20005090  __STACK_END                   
2000509c  errno                         
200050a0  offset                        
20005400  color                         
20006000  pui8ControlTable              
20006600  CosOffset                     
20006680  SinOffset                     
20006700  oldDiffCosResults             
20006780  oldDiffSinResults             
20006800  setting                       
20006818  SensorData                    
2000681c  backColor                     
20006820  sensorData                    
20006824  settings                      
20006828  commandFromTouch              
ffffffff  __TI_pprof_out_hndl           
ffffffff  __TI_prof_data_size           
ffffffff  __TI_prof_data_start          
ffffffff  __binit__                     
ffffffff  __c_args__                    
ffffffff  binit                         
UNDEFED   __mpu_init                    
UNDEFED   _system_post_cinit            

[217 symbols]
